target datalayout = "e-m:e-p270:32:32-p271:32:32-p272:64:64-i64:64-i128:128-f80:128-n8:16:32:64-S128"
target triple = "x86_64-pc-linux-gnu"

%"class.rocksdb::FileIndexer" = type { i64, ptr, %"class.rocksdb::autovector", ptr }
%"class.rocksdb::autovector" = type { i64, [128 x i8], ptr, %"class.std::vector.0" }
%"class.std::vector.0" = type { %"struct.std::_Vector_base.1" }
%"struct.std::_Vector_base.1" = type { %"struct.std::_Vector_base<rocksdb::FileIndexer::IndexLevel, std::allocator<rocksdb::FileIndexer::IndexLevel>>::_Vector_impl" }
%"struct.std::_Vector_base<rocksdb::FileIndexer::IndexLevel, std::allocator<rocksdb::FileIndexer::IndexLevel>>::_Vector_impl" = type { %"struct.std::_Vector_base<rocksdb::FileIndexer::IndexLevel, std::allocator<rocksdb::FileIndexer::IndexLevel>>::_Vector_impl_data" }
%"struct.std::_Vector_base<rocksdb::FileIndexer::IndexLevel, std::allocator<rocksdb::FileIndexer::IndexLevel>>::_Vector_impl_data" = type { ptr, ptr, ptr }
%"struct.rocksdb::FileIndexer::IndexLevel" = type { i64, ptr }
%"struct.rocksdb::FileIndexer::IndexUnit" = type { i32, i32, i32, i32 }

; Function Attrs: mustprogress nounwind uwtable
define linkonce_odr noundef nonnull align 8 dereferenceable(16) ptr @_ZNKSt6vectorIN7rocksdb11FileIndexer10IndexLevelESaIS2_EEixEm(ptr noundef nonnull align 8 dereferenceable(24) %0, i64 noundef %1) #4 comdat align 2 {
  %3 = alloca ptr, align 8
  %4 = alloca i64, align 8
  store ptr %0, ptr %3, align 8, !tbaa !111
  store i64 %1, ptr %4, align 8, !tbaa !4
  %5 = load ptr, ptr %3, align 8
  %6 = getelementptr inbounds nuw %"struct.std::_Vector_base.1", ptr %5, i32 0, i32 0
  %7 = getelementptr inbounds nuw %"struct.std::_Vector_base<rocksdb::FileIndexer::IndexLevel, std::allocator<rocksdb::FileIndexer::IndexLevel>>::_Vector_impl_data", ptr %6, i32 0, i32 0
  %8 = load ptr, ptr %7, align 8, !tbaa !121
  %9 = load i64, ptr %4, align 8, !tbaa !4
  %10 = getelementptr inbounds nuw %"struct.rocksdb::FileIndexer::IndexLevel", ptr %8, i64 %9
  ret ptr %10
}

; Function Attrs: mustprogress nounwind uwtable
define linkonce_odr noundef nonnull align 8 dereferenceable(16) ptr @_ZNK7rocksdb10autovectorINS_11FileIndexer10IndexLevelELm8EEixEm(ptr noundef nonnull align 8 dereferenceable(168) %0, i64 noundef %1) #4 comdat align 2 {
  %3 = alloca ptr, align 8
  %4 = alloca ptr, align 8
  %5 = alloca i64, align 8
  store ptr %0, ptr %4, align 8, !tbaa !37
  store i64 %1, ptr %5, align 8, !tbaa !4
  %6 = load ptr, ptr %4, align 8
  %7 = load i64, ptr %5, align 8, !tbaa !4
  %8 = icmp ult i64 %7, 8
  br i1 %8, label %9, label %14

9:                                                ; preds = %2
  %10 = getelementptr inbounds nuw %"class.rocksdb::autovector", ptr %6, i32 0, i32 2
  %11 = load ptr, ptr %10, align 8, !tbaa !40
  %12 = load i64, ptr %5, align 8, !tbaa !4
  %13 = getelementptr inbounds nuw %"struct.rocksdb::FileIndexer::IndexLevel", ptr %11, i64 %12
  store ptr %13, ptr %3, align 8
  br label %19

14:                                               ; preds = %2
  %15 = getelementptr inbounds nuw %"class.rocksdb::autovector", ptr %6, i32 0, i32 3
  %16 = load i64, ptr %5, align 8, !tbaa !4
  %17 = sub i64 %16, 8
  %18 = call noundef nonnull align 8 dereferenceable(16) ptr @_ZNKSt6vectorIN7rocksdb11FileIndexer10IndexLevelESaIS2_EEixEm(ptr noundef nonnull align 8 dereferenceable(24) %15, i64 noundef %17) #5
  store ptr %18, ptr %3, align 8
  br label %19

19:                                               ; preds = %14, %9
  %20 = load ptr, ptr %3, align 8
  ret ptr %20
}

; Function Attrs: mustprogress uwtable
define void @_ZNK7rocksdb11FileIndexer17GetNextLevelIndexEmmiiPiS1_(ptr noundef nonnull align 8 dereferenceable(192) %0, i64 noundef %1, i64 noundef %2, i32 noundef %3, i32 noundef %4, ptr noundef %5, ptr noundef %6) #6 align 2 {
  %8 = alloca ptr, align 8
  %9 = alloca i64, align 8
  %10 = alloca i64, align 8
  %11 = alloca i32, align 4
  %12 = alloca i32, align 4
  %13 = alloca ptr, align 8
  %14 = alloca ptr, align 8
  %15 = alloca ptr, align 8
  %16 = alloca ptr, align 8
  store ptr %0, ptr %8, align 8, !tbaa !22
  store i64 %1, ptr %9, align 8, !tbaa !4
  store i64 %2, ptr %10, align 8, !tbaa !4
  store i32 %3, ptr %11, align 4, !tbaa !44
  store i32 %4, ptr %12, align 4, !tbaa !44
  store ptr %5, ptr %13, align 8, !tbaa !46
  store ptr %6, ptr %14, align 8, !tbaa !46
  %17 = load ptr, ptr %8, align 8
  %18 = load i64, ptr %9, align 8, !tbaa !4
  %19 = getelementptr inbounds nuw %"class.rocksdb::FileIndexer", ptr %17, i32 0, i32 0
  %20 = load i64, ptr %19, align 8, !tbaa !26
  %21 = sub i64 %20, 1
  %22 = icmp eq i64 %18, %21
  br i1 %22, label %23, label %26

23:                                               ; preds = %7
  %24 = load ptr, ptr %13, align 8, !tbaa !46
  store i32 0, ptr %24, align 4, !tbaa !44
  %25 = load ptr, ptr %14, align 8, !tbaa !46
  store i32 -1, ptr %25, align 4, !tbaa !44
  br label %110

26:                                               ; preds = %7
  call void @llvm.lifetime.start.p0(i64 8, ptr %15) #5
  %27 = getelementptr inbounds nuw %"class.rocksdb::FileIndexer", ptr %17, i32 0, i32 2
  %28 = load i64, ptr %9, align 8, !tbaa !4
  %29 = call noundef nonnull align 8 dereferenceable(16) ptr @_ZNK7rocksdb10autovectorINS_11FileIndexer10IndexLevelELm8EEixEm(ptr noundef nonnull align 8 dereferenceable(168) %27, i64 noundef %28)
  %30 = getelementptr inbounds nuw %"struct.rocksdb::FileIndexer::IndexLevel", ptr %29, i32 0, i32 1
  %31 = load ptr, ptr %30, align 8, !tbaa !47
  store ptr %31, ptr %15, align 8, !tbaa !48
  call void @llvm.lifetime.start.p0(i64 8, ptr %16) #5
  %32 = load ptr, ptr %15, align 8, !tbaa !48
  %33 = load i64, ptr %10, align 8, !tbaa !4
  %34 = getelementptr inbounds nuw %"struct.rocksdb::FileIndexer::IndexUnit", ptr %32, i64 %33
  store ptr %34, ptr %16, align 8, !tbaa !48
  %35 = load i32, ptr %11, align 4, !tbaa !44
  %36 = icmp slt i32 %35, 0
  br i1 %36, label %37, label %58

37:                                               ; preds = %26
  %38 = load i64, ptr %9, align 8, !tbaa !4
  %39 = icmp ugt i64 %38, 0
  br i1 %39, label %40, label %50

40:                                               ; preds = %37
  %41 = load i64, ptr %10, align 8, !tbaa !4
  %42 = icmp ugt i64 %41, 0
  br i1 %42, label %43, label %50

43:                                               ; preds = %40
  %44 = load ptr, ptr %15, align 8, !tbaa !48
  %45 = load i64, ptr %10, align 8, !tbaa !4
  %46 = sub i64 %45, 1
  %47 = getelementptr inbounds nuw %"struct.rocksdb::FileIndexer::IndexUnit", ptr %44, i64 %46
  %48 = getelementptr inbounds nuw %"struct.rocksdb::FileIndexer::IndexUnit", ptr %47, i32 0, i32 1
  %49 = load i32, ptr %48, align 4, !tbaa !49
  br label %51

50:                                               ; preds = %40, %37
  br label %51

51:                                               ; preds = %50, %43
  %52 = phi i32 [ %49, %43 ], [ 0, %50 ]
  %53 = load ptr, ptr %13, align 8, !tbaa !46
  store i32 %52, ptr %53, align 4, !tbaa !44
  %54 = load ptr, ptr %16, align 8, !tbaa !48
  %55 = getelementptr inbounds nuw %"struct.rocksdb::FileIndexer::IndexUnit", ptr %54, i32 0, i32 2
  %56 = load i32, ptr %55, align 4, !tbaa !51
  %57 = load ptr, ptr %14, align 8, !tbaa !46
  store i32 %56, ptr %57, align 4, !tbaa !44
  br label %109

58:                                               ; preds = %26
  %59 = load i32, ptr %11, align 4, !tbaa !44
  %60 = icmp eq i32 %59, 0
  br i1 %60, label %61, label %70

61:                                               ; preds = %58
  %62 = load ptr, ptr %16, align 8, !tbaa !48
  %63 = getelementptr inbounds nuw %"struct.rocksdb::FileIndexer::IndexUnit", ptr %62, i32 0, i32 0
  %64 = load i32, ptr %63, align 4, !tbaa !52
  %65 = load ptr, ptr %13, align 8, !tbaa !46
  store i32 %64, ptr %65, align 4, !tbaa !44
  %66 = load ptr, ptr %16, align 8, !tbaa !48
  %67 = getelementptr inbounds nuw %"struct.rocksdb::FileIndexer::IndexUnit", ptr %66, i32 0, i32 2
  %68 = load i32, ptr %67, align 4, !tbaa !51
  %69 = load ptr, ptr %14, align 8, !tbaa !46
  store i32 %68, ptr %69, align 4, !tbaa !44
  br label %108

70:                                               ; preds = %58
  %71 = load i32, ptr %12, align 4, !tbaa !44
  %72 = icmp slt i32 %71, 0
  br i1 %72, label %73, label %82

73:                                               ; preds = %70
  %74 = load ptr, ptr %16, align 8, !tbaa !48
  %75 = getelementptr inbounds nuw %"struct.rocksdb::FileIndexer::IndexUnit", ptr %74, i32 0, i32 0
  %76 = load i32, ptr %75, align 4, !tbaa !52
  %77 = load ptr, ptr %13, align 8, !tbaa !46
  store i32 %76, ptr %77, align 4, !tbaa !44
  %78 = load ptr, ptr %16, align 8, !tbaa !48
  %79 = getelementptr inbounds nuw %"struct.rocksdb::FileIndexer::IndexUnit", ptr %78, i32 0, i32 3
  %80 = load i32, ptr %79, align 4, !tbaa !53
  %81 = load ptr, ptr %14, align 8, !tbaa !46
  store i32 %80, ptr %81, align 4, !tbaa !44
  br label %107

82:                                               ; preds = %70
  %83 = load i32, ptr %12, align 4, !tbaa !44
  %84 = icmp eq i32 %83, 0
  br i1 %84, label %85, label %94

85:                                               ; preds = %82
  %86 = load ptr, ptr %16, align 8, !tbaa !48
  %87 = getelementptr inbounds nuw %"struct.rocksdb::FileIndexer::IndexUnit", ptr %86, i32 0, i32 1
  %88 = load i32, ptr %87, align 4, !tbaa !49
  %89 = load ptr, ptr %13, align 8, !tbaa !46
  store i32 %88, ptr %89, align 4, !tbaa !44
  %90 = load ptr, ptr %16, align 8, !tbaa !48
  %91 = getelementptr inbounds nuw %"struct.rocksdb::FileIndexer::IndexUnit", ptr %90, i32 0, i32 3
  %92 = load i32, ptr %91, align 4, !tbaa !53
  %93 = load ptr, ptr %14, align 8, !tbaa !46
  store i32 %92, ptr %93, align 4, !tbaa !44
  br label %106

94:                                               ; preds = %82
  %95 = load ptr, ptr %16, align 8, !tbaa !48
  %96 = getelementptr inbounds nuw %"struct.rocksdb::FileIndexer::IndexUnit", ptr %95, i32 0, i32 1
  %97 = load i32, ptr %96, align 4, !tbaa !49
  %98 = load ptr, ptr %13, align 8, !tbaa !46
  store i32 %97, ptr %98, align 4, !tbaa !44
  %99 = getelementptr inbounds nuw %"class.rocksdb::FileIndexer", ptr %17, i32 0, i32 3
  %100 = load ptr, ptr %99, align 8, !tbaa !36
  %101 = load i64, ptr %9, align 8, !tbaa !4
  %102 = add i64 %101, 1
  %103 = getelementptr inbounds nuw i32, ptr %100, i64 %102
  %104 = load i32, ptr %103, align 4, !tbaa !44
  %105 = load ptr, ptr %14, align 8, !tbaa !46
  store i32 %104, ptr %105, align 4, !tbaa !44
  br label %106

106:                                              ; preds = %94, %85
  br label %107

107:                                              ; preds = %106, %73
  br label %108

108:                                              ; preds = %107, %61
  br label %109

109:                                              ; preds = %108, %51
  call void @llvm.lifetime.end.p0(i64 8, ptr %16) #5
  call void @llvm.lifetime.end.p0(i64 8, ptr %15) #5
  br label %110

110:                                              ; preds = %109, %23
  ret void
}