; Function Attrs: mustprogress nofree norecurse nosync nounwind willreturn memory(read, argmem: readwrite, inaccessiblemem: none) uwtable
define void @_ZNK7rocksdb11FileIndexer17GetNextLevelIndexEmmiiPiS1_(ptr noundef nonnull readonly align 8 captures(none) dereferenceable(192) %0, i64 noundef %1, i64 noundef %2, i32 noundef %3, i32 noundef %4, ptr noundef writeonly captures(none) initializes((0, 4)) %5, ptr noundef writeonly captures(none) initializes((0, 4)) %6) local_unnamed_addr #6 align 2 {
  %8 = load i64, ptr %0, align 8, !tbaa !11
  %9 = add i64 %8, -1
  %10 = icmp eq i64 %1, %9
  br i1 %10, label %11, label %12

11:                                               ; preds = %7
  store i32 0, ptr %5, align 4, !tbaa !30
  br label %60

12:                                               ; preds = %7
  %13 = icmp ult i64 %1, 8
  %14 = getelementptr inbounds nuw i8, ptr %0, i64 152
  %15 = load ptr, ptr %14, align 8
  %16 = getelementptr inbounds nuw %"struct.rocksdb::FileIndexer::IndexLevel", ptr %15, i64 %1
  %17 = getelementptr inbounds nuw i8, ptr %0, i64 160
  %18 = load ptr, ptr %17, align 8
  %19 = getelementptr %"struct.rocksdb::FileIndexer::IndexLevel", ptr %18, i64 %1
  %20 = getelementptr i8, ptr %19, i64 -128
  %.0.i = select i1 %13, ptr %16, ptr %20
  %21 = getelementptr inbounds nuw i8, ptr %.0.i, i64 8
  %22 = load ptr, ptr %21, align 8, !tbaa !32
  %23 = getelementptr %"struct.rocksdb::FileIndexer::IndexUnit", ptr %22, i64 %2
  %24 = icmp slt i32 %3, 0
  br i1 %24, label %25, label %35

25:                                               ; preds = %12
  %26 = icmp ne i64 %1, 0
  %27 = icmp ne i64 %2, 0
  %or.cond = and i1 %26, %27
  br i1 %or.cond, label %28, label %31

28:                                               ; preds = %25
  %29 = getelementptr i8, ptr %23, i64 -12
  %30 = load i32, ptr %29, align 4, !tbaa !33
  br label %31

31:                                               ; preds = %25, %28
  %32 = phi i32 [ %30, %28 ], [ 0, %25 ]
  store i32 %32, ptr %5, align 4, !tbaa !30
  %33 = getelementptr inbounds nuw i8, ptr %23, i64 8
  %34 = load i32, ptr %33, align 4, !tbaa !35
  br label %60

35:                                               ; preds = %12
  %36 = icmp eq i32 %3, 0
  br i1 %36, label %37, label %41

37:                                               ; preds = %35
  %38 = load i32, ptr %23, align 4, !tbaa !36
  store i32 %38, ptr %5, align 4, !tbaa !30
  %39 = getelementptr inbounds nuw i8, ptr %23, i64 8
  %40 = load i32, ptr %39, align 4, !tbaa !35
  br label %60

41:                                               ; preds = %35
  %42 = icmp slt i32 %4, 0
  br i1 %42, label %43, label %47

43:                                               ; preds = %41
  %44 = load i32, ptr %23, align 4, !tbaa !36
  store i32 %44, ptr %5, align 4, !tbaa !30
  %45 = getelementptr inbounds nuw i8, ptr %23, i64 12
  %46 = load i32, ptr %45, align 4, !tbaa !37
  br label %60

47:                                               ; preds = %41
  %48 = icmp eq i32 %4, 0
  %49 = getelementptr inbounds nuw i8, ptr %23, i64 4
  %50 = load i32, ptr %49, align 4, !tbaa !33
  store i32 %50, ptr %5, align 4, !tbaa !30
  br i1 %48, label %51, label %54

51:                                               ; preds = %47
  %52 = getelementptr inbounds nuw i8, ptr %23, i64 12
  %53 = load i32, ptr %52, align 4, !tbaa !37
  br label %60

54:                                               ; preds = %47
  %55 = getelementptr inbounds nuw i8, ptr %0, i64 184
  %56 = load ptr, ptr %55, align 8, !tbaa !38
  %57 = getelementptr i32, ptr %56, i64 %1
  %58 = getelementptr i8, ptr %57, i64 4
  %59 = load i32, ptr %58, align 4, !tbaa !30
  br label %60

60:                                               ; preds = %31, %43, %54, %51, %37, %11
  %.sink = phi i32 [ %34, %31 ], [ %46, %43 ], [ %59, %54 ], [ %53, %51 ], [ %40, %37 ], [ -1, %11 ]
  store i32 %.sink, ptr %6, align 4, !tbaa !30
  ret void
}